target datalayout = "e-m:e-p270:32:32-p271:32:32-p272:64:64-i64:64-i128:128-f80:128-n8:16:32:64-S128"
target triple = "x86_64-pc-linux-gnu"

%struct.buf_chunk = type { ptr, i64, i64, i64, %union.anon }
%union.anon = type { ptr }
%struct.bufq = type { ptr, ptr, ptr, ptr, i64, i64, i64, i32 }

; Function Attrs: nounwind uwtable
define internal i64 @chunk_space(ptr noundef %0) #0 {
  %2 = alloca ptr, align 8
  store ptr %0, ptr %2, align 8
  %3 = load ptr, ptr %2, align 8
  %4 = getelementptr inbounds %struct.buf_chunk, ptr %3, i32 0, i32 1
  %5 = load i64, ptr %4, align 8
  %6 = load ptr, ptr %2, align 8
  %7 = getelementptr inbounds %struct.buf_chunk, ptr %6, i32 0, i32 3
  %8 = load i64, ptr %7, align 8
  %9 = sub i64 %5, %8
  ret i64 %9
}

; Function Attrs: nounwind uwtable
define dso_local i64 @Curl_bufq_space(ptr noundef %0) #0 {
  %2 = alloca ptr, align 8
  %3 = alloca i64, align 8
  %4 = alloca ptr, align 8
  store ptr %0, ptr %2, align 8
  store i64 0, ptr %3, align 8
  %5 = load ptr, ptr %2, align 8
  %6 = getelementptr inbounds %struct.bufq, ptr %5, i32 0, i32 1
  %7 = load ptr, ptr %6, align 8
  %8 = icmp ne ptr %7, null
  br i1 %8, label %9, label %16

9:                                                ; preds = %1
  %10 = load ptr, ptr %2, align 8
  %11 = getelementptr inbounds %struct.bufq, ptr %10, i32 0, i32 1
  %12 = load ptr, ptr %11, align 8
  %13 = call i64 @chunk_space(ptr noundef %12)
  %14 = load i64, ptr %3, align 8
  %15 = add i64 %14, %13
  store i64 %15, ptr %3, align 8
  br label %16

16:                                               ; preds = %9, %1
  %17 = load ptr, ptr %2, align 8
  %18 = getelementptr inbounds %struct.bufq, ptr %17, i32 0, i32 2
  %19 = load ptr, ptr %18, align 8
  %20 = icmp ne ptr %19, null
  br i1 %20, label %21, label %38

21:                                               ; preds = %16
  %22 = load ptr, ptr %2, align 8
  %23 = getelementptr inbounds %struct.bufq, ptr %22, i32 0, i32 2
  %24 = load ptr, ptr %23, align 8
  store ptr %24, ptr %4, align 8
  br label %25

25:                                               ; preds = %28, %21
  %26 = load ptr, ptr %4, align 8
  %27 = icmp ne ptr %26, null
  br i1 %27, label %28, label %37

28:                                               ; preds = %25
  %29 = load ptr, ptr %4, align 8
  %30 = getelementptr inbounds %struct.buf_chunk, ptr %29, i32 0, i32 1
  %31 = load i64, ptr %30, align 8
  %32 = load i64, ptr %3, align 8
  %33 = add i64 %32, %31
  store i64 %33, ptr %3, align 8
  %34 = load ptr, ptr %4, align 8
  %35 = getelementptr inbounds %struct.buf_chunk, ptr %34, i32 0, i32 0
  %36 = load ptr, ptr %35, align 8
  store ptr %36, ptr %4, align 8
  br label %25, !llvm.loop !9

37:                                               ; preds = %25
  br label %38

38:                                               ; preds = %37, %16
  %39 = load ptr, ptr %2, align 8
  %40 = getelementptr inbounds %struct.bufq, ptr %39, i32 0, i32 4
  %41 = load i64, ptr %40, align 8
  %42 = load ptr, ptr %2, align 8
  %43 = getelementptr inbounds %struct.bufq, ptr %42, i32 0, i32 5
  %44 = load i64, ptr %43, align 8
  %45 = icmp ult i64 %41, %44
  br i1 %45, label %46, label %60

46:                                               ; preds = %38
  %47 = load ptr, ptr %2, align 8
  %48 = getelementptr inbounds %struct.bufq, ptr %47, i32 0, i32 5
  %49 = load i64, ptr %48, align 8
  %50 = load ptr, ptr %2, align 8
  %51 = getelementptr inbounds %struct.bufq, ptr %50, i32 0, i32 4
  %52 = load i64, ptr %51, align 8
  %53 = sub i64 %49, %52
  %54 = load ptr, ptr %2, align 8
  %55 = getelementptr inbounds %struct.bufq, ptr %54, i32 0, i32 6
  %56 = load i64, ptr %55, align 8
  %57 = mul i64 %53, %56
  %58 = load i64, ptr %3, align 8
  %59 = add i64 %58, %57
  store i64 %59, ptr %3, align 8
  br label %60

60:                                               ; preds = %46, %38
  %61 = load i64, ptr %3, align 8
  ret i64 %61
}