; Function Attrs: nofree norecurse nosync nounwind memory(read, inaccessiblemem: none) uwtable
define dso_local i64 @Curl_bufq_space(ptr noundef readonly captures(none) %0) local_unnamed_addr #5 {
  %2 = getelementptr inbounds nuw i8, ptr %0, i64 8
  %3 = load ptr, ptr %2, align 8
  %.not = icmp eq ptr %3, null
  br i1 %.not, label %8, label %4

4:                                                ; preds = %1
  %5 = getelementptr i8, ptr %3, i64 8
  %.val = load i64, ptr %5, align 8
  %6 = getelementptr i8, ptr %3, i64 24
  %.val22 = load i64, ptr %6, align 8
  %7 = sub i64 %.val, %.val22
  br label %8

8:                                                ; preds = %4, %1
  %.015 = phi i64 [ %7, %4 ], [ 0, %1 ]
  %9 = getelementptr inbounds nuw i8, ptr %0, i64 16
  %10 = load ptr, ptr %9, align 8
  %.not20 = icmp eq ptr %10, null
  br i1 %.not20, label %.loopexit, label %.preheader

.preheader:                                       ; preds = %8, %.preheader
  %.024 = phi ptr [ %14, %.preheader ], [ %10, %8 ]
  %.223 = phi i64 [ %13, %.preheader ], [ %.015, %8 ]
  %11 = getelementptr inbounds nuw i8, ptr %.024, i64 8
  %12 = load i64, ptr %11, align 8
  %13 = add i64 %12, %.223
  %14 = load ptr, ptr %.024, align 8
  %.not21 = icmp eq ptr %14, null
  br i1 %.not21, label %.loopexit, label %.preheader, !llvm.loop !9

.loopexit:                                        ; preds = %.preheader, %8
  %.1 = phi i64 [ %.015, %8 ], [ %13, %.preheader ]
  %15 = getelementptr inbounds nuw i8, ptr %0, i64 32
  %16 = load i64, ptr %15, align 8
  %17 = getelementptr inbounds nuw i8, ptr %0, i64 40
  %18 = load i64, ptr %17, align 8
  %19 = icmp ult i64 %16, %18
  br i1 %19, label %20, label %26

20:                                               ; preds = %.loopexit
  %21 = sub nuw i64 %18, %16
  %22 = getelementptr inbounds nuw i8, ptr %0, i64 48
  %23 = load i64, ptr %22, align 8
  %24 = mul i64 %23, %21
  %25 = add i64 %24, %.1
  br label %26

26:                                               ; preds = %20, %.loopexit
  %.3 = phi i64 [ %25, %20 ], [ %.1, %.loopexit ]
  ret i64 %.3
}